Certificate:
    Data:
        Version: 3 (0x2)
        Serial Number:
            30:6e:d7:4e:14:bc:c5:88:6d:98:07:5d:90:f4:78:c3
        Signature Algorithm: sha256WithRSAEncryption
        Issuer: CN=VirtusProDPKK
        Validity
            Not Before: Jan 20 11:43:05 2023 GMT
            Not After : Apr 24 11:43:05 2025 GMT
        Subject: CN=ServerDPKK
        Subject Public Key Info:
            Public Key Algorithm: rsaEncryption
                Public-Key: (2048 bit)
                Modulus:
                    00:ae:3c:ae:3c:36:ef:58:31:cd:93:ca:53:c2:b9:
                    44:58:b4:9d:b0:a8:b6:86:3d:51:8f:6f:18:9b:b3:
                    72:f2:aa:c8:12:3e:1e:b9:c7:20:15:07:43:c5:20:
                    e2:c0:87:40:fc:cf:02:b6:a5:5c:b7:92:4b:c5:69:
                    dd:de:45:ca:bd:8c:84:5e:47:16:fc:96:f8:06:16:
                    19:9a:a3:9d:55:be:d7:cf:d5:8b:f7:2b:6e:db:96:
                    f0:e6:13:07:c6:28:aa:01:03:9f:8c:f8:db:09:46:
                    af:20:b7:f1:af:0b:6b:9d:b7:77:5d:8a:72:7d:ea:
                    57:de:32:4a:f0:ac:bc:92:c3:e2:67:e1:f0:b9:53:
                    a3:07:ed:32:62:24:49:f7:77:2b:b2:ce:aa:2d:4f:
                    5a:45:f1:26:d3:2e:dd:e3:ca:0c:db:b4:06:8f:ae:
                    77:9d:14:ba:c9:14:8b:b8:d5:cb:80:f1:66:e6:0a:
                    6c:eb:cb:48:79:e3:c5:9d:62:25:d0:d8:e2:b3:41:
                    71:e4:b9:a7:fe:c4:20:63:5a:91:21:7a:3e:1c:66:
                    3a:c8:c6:8c:c3:7d:53:f1:d3:5e:7e:e7:9b:73:20:
                    58:79:e1:a9:45:b2:21:03:d8:36:2e:15:c3:5c:b2:
                    26:70:3e:1e:1e:6c:b2:f7:4a:ec:53:32:d2:d0:53:
                    40:3d
                Exponent: 65537 (0x10001)
        X509v3 extensions:
            X509v3 Basic Constraints: 
                CA:FALSE
            X509v3 Subject Key Identifier: 
                E2:FA:6D:5B:9D:14:DC:A6:88:1A:C6:97:A7:2A:26:F7:25:0B:A2:CF
            X509v3 Authority Key Identifier: 
                keyid:67:D6:B3:A6:5A:8E:6B:28:88:5C:59:F0:99:E0:6A:81:58:DB:D4:97
                DirName:/CN=VirtusProDPKK
                serial:1A:83:18:12:98:89:A4:39:95:95:7A:AD:5A:4B:67:CB:AA:7F:DB:AC
            X509v3 Extended Key Usage: 
                TLS Web Server Authentication
            X509v3 Key Usage: 
                Digital Signature, Key Encipherment
            X509v3 Subject Alternative Name: 
                DNS:ServerDPKK
    Signature Algorithm: sha256WithRSAEncryption
    Signature Value:
        bf:bc:b4:c3:31:85:a3:47:02:db:85:f7:68:d8:57:bd:5c:24:
        30:92:bd:75:4b:96:0e:f5:39:2a:c2:e0:89:39:b2:a3:1d:89:
        9e:6f:ae:74:c6:f0:8e:9a:e3:fb:01:fb:ac:09:ed:db:aa:bb:
        54:aa:02:3d:de:8b:97:a1:c0:79:d1:38:29:3a:fa:73:67:d7:
        8a:7a:ab:33:b4:91:1f:90:9a:9b:28:98:b3:87:e5:4c:db:11:
        1b:9b:6d:78:f5:27:0f:3e:50:8c:f3:ab:5a:76:8a:63:f1:70:
        23:50:8a:ca:af:35:28:1d:96:b1:a9:55:d3:15:f6:3d:da:7b:
        9a:f7:0b:3f:ce:7d:f3:8c:a9:94:a4:44:b2:92:8f:e4:2c:20:
        dd:b3:ec:4a:0a:a8:1f:1e:e2:0c:28:c7:3c:02:e8:cc:24:05:
        3b:69:ec:1d:b3:14:87:f5:ee:b5:bd:d4:ab:b2:84:18:64:64:
        a0:a8:74:6e:de:74:2c:88:a3:0e:50:c4:0a:c9:81:16:56:bd:
        e6:bb:0f:4d:64:95:3f:86:30:29:9d:22:db:7f:f7:ac:e2:b4:
        02:82:5e:b8:ce:59:d3:78:e0:e4:f9:bd:b6:5a:c3:2c:9c:9f:
        22:9f:b6:24:92:5c:2a:74:c8:88:87:93:7b:50:9d:ee:fb:c4:
        ea:17:b2:b2
-----BEGIN CERTIFICATE-----
MIIDczCCAlugAwIBAgIQMG7XThS8xYhtmAddkPR4wzANBgkqhkiG9w0BAQsFADAY
MRYwFAYDVQQDDA1WaXJ0dXNQcm9EUEtLMB4XDTIzMDEyMDExNDMwNVoXDTI1MDQy
NDExNDMwNVowFTETMBEGA1UEAwwKU2VydmVyRFBLSzCCASIwDQYJKoZIhvcNAQEB
BQADggEPADCCAQoCggEBAK48rjw271gxzZPKU8K5RFi0nbCotoY9UY9vGJuzcvKq
yBI+HrnHIBUHQ8Ug4sCHQPzPAralXLeSS8Vp3d5Fyr2MhF5HFvyW+AYWGZqjnVW+
18/Vi/crbtuW8OYTB8YoqgEDn4z42wlGryC38a8La523d12Kcn3qV94ySvCsvJLD
4mfh8LlTowftMmIkSfd3K7LOqi1PWkXxJtMu3ePKDNu0Bo+ud50UuskUi7jVy4Dx
ZuYKbOvLSHnjxZ1iJdDY4rNBceS5p/7EIGNakSF6PhxmOsjGjMN9U/HTXn7nm3Mg
WHnhqUWyIQPYNi4Vw1yyJnA+Hh5ssvdK7FMy0tBTQD0CAwEAAaOBuzCBuDAJBgNV
HRMEAjAAMB0GA1UdDgQWBBTi+m1bnRTcpogaxpenKib3JQuizzBTBgNVHSMETDBK
gBRn1rOmWo5rKIhcWfCZ4GqBWNvUl6EcpBowGDEWMBQGA1UEAwwNVmlydHVzUHJv
RFBLS4IUGoMYEpiJpDmVlXqtWktny6p/26wwEwYDVR0lBAwwCgYIKwYBBQUHAwEw
CwYDVR0PBAQDAgWgMBUGA1UdEQQOMAyCClNlcnZlckRQS0swDQYJKoZIhvcNAQEL
BQADggEBAL+8tMMxhaNHAtuF92jYV71cJDCSvXVLlg71OSrC4Ik5sqMdiZ5vrnTG
8I6a4/sB+6wJ7duqu1SqAj3ei5ehwHnROCk6+nNn14p6qzO0kR+QmpsomLOH5Uzb
ERubbXj1Jw8+UIzzq1p2imPxcCNQisqvNSgdlrGpVdMV9j3ae5r3Cz/OffOMqZSk
RLKSj+QsIN2z7EoKqB8e4gwoxzwC6MwkBTtp7B2zFIf17rW91KuyhBhkZKCodG7e
dCyIow5QxArJgRZWvea7D01klT+GMCmdItt/96zitAKCXrjOWdN44OT5vbZawyyc
nyKftiSSXCp0yIiHk3tQne77xOoXsrI=
-----END CERTIFICATE-----
